target datalayout = "e-m:e-p270:32:32-p271:32:32-p272:64:64-i64:64-i128:128-f80:128-n8:16:32:64-S128"
target triple = "x86_64-pc-linux-gnu"

@.str.16 = private unnamed_addr constant [18 x i8] c"*** Empty OID ***\00", align 1
@.str.17 = private unnamed_addr constant [1 x i8] zeroinitializer, align 1
@.str.18 = private unnamed_addr constant [4 x i8] c"%u.\00", align 1

; Function Attrs: null_pointer_is_valid sspstrong uwtable
define ptr @rel_oid_subid2string(ptr noundef %0, ptr noundef %1, i32 noundef %2, i1 noundef zeroext %3) #0 {
  %5 = alloca ptr, align 8
  %6 = alloca ptr, align 8
  %7 = alloca ptr, align 8
  %8 = alloca i32, align 4
  %9 = alloca i8, align 1
  %10 = alloca ptr, align 8
  %11 = alloca i64, align 8
  %12 = alloca i32, align 4
  store ptr %0, ptr %6, align 8
  store ptr %1, ptr %7, align 8
  store i32 %2, ptr %8, align 4
  %13 = zext i1 %3 to i8
  store i8 %13, ptr %9, align 1
  call void @llvm.lifetime.start.p0(i64 8, ptr %10) #6
  call void @llvm.lifetime.start.p0(i64 8, ptr %11) #6
  %14 = load ptr, ptr %7, align 8
  %15 = icmp ne ptr %14, null
  br i1 %15, label %16, label %19

16:                                               ; preds = %4
  %17 = load i32, ptr %8, align 4
  %18 = icmp eq i32 %17, 0
  br i1 %18, label %19, label %22

19:                                               ; preds = %16, %4
  %20 = load ptr, ptr %6, align 8
  %21 = call noalias ptr @wmem_strdup(ptr noundef %20, ptr noundef @.str.16)
  store ptr %21, ptr %5, align 8
  store i32 1, ptr %12, align 4
  br label %47

22:                                               ; preds = %16
  %23 = load ptr, ptr %6, align 8
  %24 = call noalias ptr @wmem_strbuf_new(ptr noundef %23, ptr noundef @.str.17)
  store ptr %24, ptr %10, align 8
  %25 = load i8, ptr %9, align 1, !range !9, !noundef !10
  %26 = trunc i8 %25 to i1
  br i1 %26, label %29, label %27

27:                                               ; preds = %22
  %28 = load ptr, ptr %10, align 8
  call void @wmem_strbuf_append_c(ptr noundef %28, i8 noundef signext 46)
  br label %29

29:                                               ; preds = %27, %22
  br label %30

30:                                               ; preds = %35, %29
  %31 = load ptr, ptr %10, align 8
  %32 = load ptr, ptr %7, align 8
  %33 = getelementptr i32, ptr %32, i32 1
  store ptr %33, ptr %7, align 8
  %34 = load i32, ptr %32, align 4
  call void (ptr, ptr, ...) @wmem_strbuf_append_printf(ptr noundef %31, ptr noundef @.str.18, i32 noundef %34)
  br label %35

35:                                               ; preds = %30
  %36 = load i32, ptr %8, align 4
  %37 = add i32 %36, -1
  store i32 %37, ptr %8, align 4
  %38 = icmp ne i32 %37, 0
  br i1 %38, label %30, label %39, !llvm.loop !11

39:                                               ; preds = %35
  %40 = load ptr, ptr %10, align 8
  %41 = call i64 @wmem_strbuf_get_len(ptr noundef %40)
  store i64 %41, ptr %11, align 8
  %42 = load ptr, ptr %10, align 8
  %43 = load i64, ptr %11, align 8
  %44 = sub i64 %43, 1
  call void @wmem_strbuf_truncate(ptr noundef %42, i64 noundef %44)
  %45 = load ptr, ptr %10, align 8
  %46 = call ptr @wmem_strbuf_finalize(ptr noundef %45)
  store ptr %46, ptr %5, align 8
  store i32 1, ptr %12, align 4
  br label %47

47:                                               ; preds = %39, %19
  call void @llvm.lifetime.end.p0(i64 8, ptr %11) #6
  call void @llvm.lifetime.end.p0(i64 8, ptr %10) #6
  %48 = load ptr, ptr %5, align 8
  ret ptr %48
}