; Function Attrs: null_pointer_is_valid sspstrong uwtable
define ptr @rel_oid_subid2string(ptr noundef %0, ptr noundef readonly captures(address_is_null) %1, i32 noundef %2, i1 noundef zeroext %3) local_unnamed_addr #0 {
  %5 = icmp eq ptr %1, null
  %6 = icmp eq i32 %2, 0
  %or.cond = or i1 %5, %6
  br i1 %or.cond, label %7, label %9

7:                                                ; preds = %4
  %8 = tail call noalias ptr @wmem_strdup(ptr noundef %0, ptr noundef nonnull @.str.16)
  br label %20

9:                                                ; preds = %4
  %10 = tail call noalias ptr @wmem_strbuf_new(ptr noundef %0, ptr noundef nonnull @.str.17)
  br i1 %3, label %.preheader, label %11

11:                                               ; preds = %9
  tail call void @wmem_strbuf_append_c(ptr noundef %10, i8 noundef signext 46)
  br label %.preheader

.preheader:                                       ; preds = %11, %9
  br label %12

12:                                               ; preds = %.preheader, %12
  %.015 = phi i32 [ %15, %12 ], [ %2, %.preheader ]
  %.014 = phi ptr [ %13, %12 ], [ %1, %.preheader ]
  %13 = getelementptr i8, ptr %.014, i64 4
  %14 = load i32, ptr %.014, align 4
  tail call void (ptr, ptr, ...) @wmem_strbuf_append_printf(ptr noundef %10, ptr noundef nonnull @.str.18, i32 noundef %14)
  %15 = add i32 %.015, -1
  %.not = icmp eq i32 %15, 0
  br i1 %.not, label %16, label %12, !llvm.loop !6

16:                                               ; preds = %12
  %17 = tail call i64 @wmem_strbuf_get_len(ptr noundef %10)
  %18 = add i64 %17, -1
  tail call void @wmem_strbuf_truncate(ptr noundef %10, i64 noundef %18)
  %19 = tail call ptr @wmem_strbuf_finalize(ptr noundef %10)
  br label %20

20:                                               ; preds = %16, %7
  %.0 = phi ptr [ %8, %7 ], [ %19, %16 ]
  ret ptr %.0
}